target datalayout = "e-m:e-p270:32:32-p271:32:32-p272:64:64-i64:64-i128:128-f80:128-n8:16:32:64-S128"
target triple = "x86_64-pc-linux-gnu"

%"class.bParse::bFile" = type <{ ptr, [7 x i8], i8, ptr, i32, i32, %class.b3HashMap, i32, [4 x i8], ptr, ptr, %class.b3AlignedObjectArray.4, %class.b3AlignedObjectArray.4, %class.b3AlignedObjectArray.6, %class.b3HashMap.8, %class.b3HashMap, i32, [4 x i8] }>
%class.b3AlignedObjectArray.4 = type <{ [4 x i8], i32, i32, [4 x i8], ptr, i8, [7 x i8] }>
%class.b3AlignedObjectArray.6 = type <{ [4 x i8], i32, i32, [4 x i8], ptr, i8, [7 x i8] }>
%class.b3HashMap.8 = type { %class.b3AlignedObjectArray, %class.b3AlignedObjectArray, %class.b3AlignedObjectArray.6, %class.b3AlignedObjectArray.2 }
%class.b3AlignedObjectArray = type <{ [4 x i8], i32, i32, [4 x i8], ptr, i8, [7 x i8] }>
%class.b3AlignedObjectArray.2 = type <{ [4 x i8], i32, i32, [4 x i8], ptr, i8, [7 x i8] }>
%class.b3HashMap = type { %class.b3AlignedObjectArray, %class.b3AlignedObjectArray, %class.b3AlignedObjectArray.0, %class.b3AlignedObjectArray.2 }
%class.b3AlignedObjectArray.0 = type <{ [4 x i8], i32, i32, [4 x i8], ptr, i8, [7 x i8] }>
%struct.b3ConvertPointerSizeT = type { %union.anon.28 }
%union.anon.28 = type { ptr }

@.str.6 = private unnamed_addr constant [5 x i8] c"SDNA\00", align 1

; Function Attrs: mustprogress nounwind uwtable
define linkonce_odr dso_local noundef ptr @_Z14b3AlignPointerIcEPT_S1_m(ptr noundef %0, i64 noundef %1) #7 comdat {
  %3 = alloca ptr, align 8
  %4 = alloca i64, align 8
  %5 = alloca %struct.b3ConvertPointerSizeT, align 8
  %6 = alloca i64, align 8
  store ptr %0, ptr %3, align 8, !tbaa !4
  store i64 %1, ptr %4, align 8, !tbaa !101
  call void @llvm.lifetime.start.p0(i64 8, ptr %5) #16
  call void @llvm.lifetime.start.p0(i64 8, ptr %6) #16
  %7 = load i64, ptr %4, align 8, !tbaa !101
  %8 = sub i64 %7, 1
  %9 = xor i64 %8, -1
  store i64 %9, ptr %6, align 8, !tbaa !101
  %10 = load ptr, ptr %3, align 8, !tbaa !4
  %11 = getelementptr inbounds nuw %struct.b3ConvertPointerSizeT, ptr %5, i32 0, i32 0
  store ptr %10, ptr %11, align 8, !tbaa !11
  %12 = load i64, ptr %4, align 8, !tbaa !101
  %13 = sub i64 %12, 1
  %14 = getelementptr inbounds nuw %struct.b3ConvertPointerSizeT, ptr %5, i32 0, i32 0
  %15 = load i64, ptr %14, align 8, !tbaa !11
  %16 = add i64 %15, %13
  store i64 %16, ptr %14, align 8, !tbaa !11
  %17 = load i64, ptr %6, align 8, !tbaa !101
  %18 = getelementptr inbounds nuw %struct.b3ConvertPointerSizeT, ptr %5, i32 0, i32 0
  %19 = load i64, ptr %18, align 8, !tbaa !11
  %20 = and i64 %19, %17
  store i64 %20, ptr %18, align 8, !tbaa !11
  %21 = getelementptr inbounds nuw %struct.b3ConvertPointerSizeT, ptr %5, i32 0, i32 0
  %22 = load ptr, ptr %21, align 8, !tbaa !11
  call void @llvm.lifetime.end.p0(i64 8, ptr %6) #16
  call void @llvm.lifetime.end.p0(i64 8, ptr %5) #16
  ret ptr %22
}

; Function Attrs: mustprogress uwtable
define dso_local void @_ZN6bParse5bFile7swapDNAEPc(ptr noundef nonnull align 8 dereferenceable(540) %0, ptr noundef %1) #0 align 2 {
  %3 = alloca ptr, align 8
  %4 = alloca ptr, align 8
  %5 = alloca i8, align 1
  %6 = alloca ptr, align 8
  %7 = alloca ptr, align 8
  %8 = alloca ptr, align 8
  %9 = alloca ptr, align 8
  %10 = alloca i32, align 4
  %11 = alloca i32, align 4
  %12 = alloca i32, align 4
  %13 = alloca i32, align 4
  store ptr %0, ptr %3, align 8, !tbaa !16
  store ptr %1, ptr %4, align 8, !tbaa !4
  %14 = load ptr, ptr %3, align 8
  call void @llvm.lifetime.start.p0(i64 1, ptr %5) #16
  %15 = getelementptr inbounds nuw %"class.bParse::bFile", ptr %14, i32 0, i32 16
  %16 = load i32, ptr %15, align 8, !tbaa !46
  %17 = and i32 %16, 4
  %18 = icmp ne i32 %17, 0
  %19 = zext i1 %18 to i8
  store i8 %19, ptr %5, align 1, !tbaa !67
  call void @llvm.lifetime.start.p0(i64 8, ptr %6) #16
  %20 = load ptr, ptr %4, align 8, !tbaa !4
  %21 = getelementptr inbounds i8, ptr %20, i64 20
  store ptr %21, ptr %6, align 8, !tbaa !4
  call void @llvm.lifetime.start.p0(i64 8, ptr %7) #16
  store ptr null, ptr %7, align 8, !tbaa !14
  call void @llvm.lifetime.start.p0(i64 8, ptr %8) #16
  store ptr null, ptr %8, align 8, !tbaa !80
  call void @llvm.lifetime.start.p0(i64 8, ptr %9) #16
  store ptr null, ptr %9, align 8, !tbaa !4
  call void @llvm.lifetime.start.p0(i64 4, ptr %10) #16
  store i32 0, ptr %10, align 4, !tbaa !9
  %22 = load ptr, ptr %6, align 8, !tbaa !4
  store ptr %22, ptr %7, align 8, !tbaa !14
  %23 = load ptr, ptr %6, align 8, !tbaa !4
  %24 = call i32 @strncmp(ptr noundef %23, ptr noundef @.str.6, i64 noundef 4) #17
  %25 = icmp eq i32 %24, 0
  br i1 %25, label %26, label %31

26:                                               ; preds = %2
  %27 = load ptr, ptr %7, align 8, !tbaa !14
  %28 = getelementptr inbounds nuw i32, ptr %27, i32 1
  store ptr %28, ptr %7, align 8, !tbaa !14
  %29 = load ptr, ptr %7, align 8, !tbaa !14
  %30 = getelementptr inbounds nuw i32, ptr %29, i32 1
  store ptr %30, ptr %7, align 8, !tbaa !14
  br label %31

31:                                               ; preds = %26, %2
  %32 = load i8, ptr %5, align 1, !tbaa !67, !range !59, !noundef !60
  %33 = trunc i8 %32 to i1
  br i1 %33, label %34, label %38

34:                                               ; preds = %31
  %35 = load ptr, ptr %7, align 8, !tbaa !14
  %36 = load i32, ptr %35, align 4, !tbaa !9
  %37 = call noundef i32 @_ZN6bParse10ChunkUtils7swapIntEi(i32 noundef %36)
  store i32 %37, ptr %10, align 4, !tbaa !9
  br label %41

38:                                               ; preds = %31
  %39 = load ptr, ptr %7, align 8, !tbaa !14
  %40 = load i32, ptr %39, align 4, !tbaa !9
  store i32 %40, ptr %10, align 4, !tbaa !9
  br label %41

41:                                               ; preds = %38, %34
  %42 = load ptr, ptr %7, align 8, !tbaa !14
  %43 = load i32, ptr %42, align 4, !tbaa !9
  %44 = call noundef i32 @_ZN6bParse10ChunkUtils7swapIntEi(i32 noundef %43)
  %45 = load ptr, ptr %7, align 8, !tbaa !14
  store i32 %44, ptr %45, align 4, !tbaa !9
  %46 = load ptr, ptr %7, align 8, !tbaa !14
  %47 = getelementptr inbounds nuw i32, ptr %46, i32 1
  store ptr %47, ptr %7, align 8, !tbaa !14
  %48 = load ptr, ptr %7, align 8, !tbaa !14
  store ptr %48, ptr %9, align 8, !tbaa !4
  call void @llvm.lifetime.start.p0(i64 4, ptr %11) #16
  store i32 0, ptr %11, align 4, !tbaa !9
  br label %49

49:                                               ; preds = %64, %41
  %50 = load i32, ptr %11, align 4, !tbaa !9
  %51 = load i32, ptr %10, align 4, !tbaa !9
  %52 = icmp slt i32 %50, %51
  br i1 %52, label %53, label %67

53:                                               ; preds = %49
  br label %54

54:                                               ; preds = %58, %53
  %55 = load ptr, ptr %9, align 8, !tbaa !4
  %56 = load i8, ptr %55, align 1, !tbaa !11
  %57 = icmp ne i8 %56, 0
  br i1 %57, label %58, label %61

58:                                               ; preds = %54
  %59 = load ptr, ptr %9, align 8, !tbaa !4
  %60 = getelementptr inbounds nuw i8, ptr %59, i32 1
  store ptr %60, ptr %9, align 8, !tbaa !4
  br label %54, !llvm.loop !94

61:                                               ; preds = %54
  %62 = load ptr, ptr %9, align 8, !tbaa !4
  %63 = getelementptr inbounds nuw i8, ptr %62, i32 1
  store ptr %63, ptr %9, align 8, !tbaa !4
  br label %64

64:                                               ; preds = %61
  %65 = load i32, ptr %11, align 4, !tbaa !9
  %66 = add nsw i32 %65, 1
  store i32 %66, ptr %11, align 4, !tbaa !9
  br label %49, !llvm.loop !95

67:                                               ; preds = %49
  %68 = load ptr, ptr %9, align 8, !tbaa !4
  %69 = call noundef ptr @_Z14b3AlignPointerIcEPT_S1_m(ptr noundef %68, i64 noundef 4)
  store ptr %69, ptr %9, align 8, !tbaa !4
  %70 = load ptr, ptr %9, align 8, !tbaa !4
  store ptr %70, ptr %7, align 8, !tbaa !14
  %71 = load ptr, ptr %7, align 8, !tbaa !14
  %72 = getelementptr inbounds nuw i32, ptr %71, i32 1
  store ptr %72, ptr %7, align 8, !tbaa !14
  %73 = load i8, ptr %5, align 1, !tbaa !67, !range !59, !noundef !60
  %74 = trunc i8 %73 to i1
  br i1 %74, label %75, label %79

75:                                               ; preds = %67
  %76 = load ptr, ptr %7, align 8, !tbaa !14
  %77 = load i32, ptr %76, align 4, !tbaa !9
  %78 = call noundef i32 @_ZN6bParse10ChunkUtils7swapIntEi(i32 noundef %77)
  store i32 %78, ptr %10, align 4, !tbaa !9
  br label %82

79:                                               ; preds = %67
  %80 = load ptr, ptr %7, align 8, !tbaa !14
  %81 = load i32, ptr %80, align 4, !tbaa !9
  store i32 %81, ptr %10, align 4, !tbaa !9
  br label %82

82:                                               ; preds = %79, %75
  %83 = load ptr, ptr %7, align 8, !tbaa !14
  %84 = load i32, ptr %83, align 4, !tbaa !9
  %85 = call noundef i32 @_ZN6bParse10ChunkUtils7swapIntEi(i32 noundef %84)
  %86 = load ptr, ptr %7, align 8, !tbaa !14
  store i32 %85, ptr %86, align 4, !tbaa !9
  %87 = load ptr, ptr %7, align 8, !tbaa !14
  %88 = getelementptr inbounds nuw i32, ptr %87, i32 1
  store ptr %88, ptr %7, align 8, !tbaa !14
  %89 = load ptr, ptr %7, align 8, !tbaa !14
  store ptr %89, ptr %9, align 8, !tbaa !4
  store i32 0, ptr %11, align 4, !tbaa !9
  br label %90

90:                                               ; preds = %105, %82
  %91 = load i32, ptr %11, align 4, !tbaa !9
  %92 = load i32, ptr %10, align 4, !tbaa !9
  %93 = icmp slt i32 %91, %92
  br i1 %93, label %94, label %108

94:                                               ; preds = %90
  br label %95

95:                                               ; preds = %99, %94
  %96 = load ptr, ptr %9, align 8, !tbaa !4
  %97 = load i8, ptr %96, align 1, !tbaa !11
  %98 = icmp ne i8 %97, 0
  br i1 %98, label %99, label %102

99:                                               ; preds = %95
  %100 = load ptr, ptr %9, align 8, !tbaa !4
  %101 = getelementptr inbounds nuw i8, ptr %100, i32 1
  store ptr %101, ptr %9, align 8, !tbaa !4
  br label %95, !llvm.loop !96

102:                                              ; preds = %95
  %103 = load ptr, ptr %9, align 8, !tbaa !4
  %104 = getelementptr inbounds nuw i8, ptr %103, i32 1
  store ptr %104, ptr %9, align 8, !tbaa !4
  br label %105

105:                                              ; preds = %102
  %106 = load i32, ptr %11, align 4, !tbaa !9
  %107 = add nsw i32 %106, 1
  store i32 %107, ptr %11, align 4, !tbaa !9
  br label %90, !llvm.loop !97

108:                                              ; preds = %90
  %109 = load ptr, ptr %9, align 8, !tbaa !4
  %110 = call noundef ptr @_Z14b3AlignPointerIcEPT_S1_m(ptr noundef %109, i64 noundef 4)
  store ptr %110, ptr %9, align 8, !tbaa !4
  %111 = load ptr, ptr %9, align 8, !tbaa !4
  store ptr %111, ptr %7, align 8, !tbaa !14
  %112 = load ptr, ptr %7, align 8, !tbaa !14
  %113 = getelementptr inbounds nuw i32, ptr %112, i32 1
  store ptr %113, ptr %7, align 8, !tbaa !14
  %114 = load ptr, ptr %7, align 8, !tbaa !14
  store ptr %114, ptr %8, align 8, !tbaa !80
  store i32 0, ptr %11, align 4, !tbaa !9
  br label %115

115:                                              ; preds = %126, %108
  %116 = load i32, ptr %11, align 4, !tbaa !9
  %117 = load i32, ptr %10, align 4, !tbaa !9
  %118 = icmp slt i32 %116, %117
  br i1 %118, label %119, label %131

119:                                              ; preds = %115
  %120 = load ptr, ptr %8, align 8, !tbaa !80
  %121 = getelementptr inbounds i16, ptr %120, i64 0
  %122 = load i16, ptr %121, align 2, !tbaa !82
  %123 = call noundef signext i16 @_ZN6bParse10ChunkUtils9swapShortEs(i16 noundef signext %122)
  %124 = load ptr, ptr %8, align 8, !tbaa !80
  %125 = getelementptr inbounds i16, ptr %124, i64 0
  store i16 %123, ptr %125, align 2, !tbaa !82
  br label %126

126:                                              ; preds = %119
  %127 = load i32, ptr %11, align 4, !tbaa !9
  %128 = add nsw i32 %127, 1
  store i32 %128, ptr %11, align 4, !tbaa !9
  %129 = load ptr, ptr %8, align 8, !tbaa !80
  %130 = getelementptr inbounds nuw i16, ptr %129, i32 1
  store ptr %130, ptr %8, align 8, !tbaa !80
  br label %115, !llvm.loop !98

131:                                              ; preds = %115
  %132 = load i32, ptr %10, align 4, !tbaa !9
  %133 = and i32 %132, 1
  %134 = icmp ne i32 %133, 0
  br i1 %134, label %135, label %138

135:                                              ; preds = %131
  %136 = load ptr, ptr %8, align 8, !tbaa !80
  %137 = getelementptr inbounds nuw i16, ptr %136, i32 1
  store ptr %137, ptr %8, align 8, !tbaa !80
  br label %138

138:                                              ; preds = %135, %131
  %139 = load ptr, ptr %8, align 8, !tbaa !80
  store ptr %139, ptr %7, align 8, !tbaa !14
  %140 = load ptr, ptr %7, align 8, !tbaa !14
  store ptr %140, ptr %9, align 8, !tbaa !4
  %141 = load ptr, ptr %7, align 8, !tbaa !14
  %142 = getelementptr inbounds nuw i32, ptr %141, i32 1
  store ptr %142, ptr %7, align 8, !tbaa !14
  %143 = load i8, ptr %5, align 1, !tbaa !67, !range !59, !noundef !60
  %144 = trunc i8 %143 to i1
  br i1 %144, label %145, label %149

145:                                              ; preds = %138
  %146 = load ptr, ptr %7, align 8, !tbaa !14
  %147 = load i32, ptr %146, align 4, !tbaa !9
  %148 = call noundef i32 @_ZN6bParse10ChunkUtils7swapIntEi(i32 noundef %147)
  store i32 %148, ptr %10, align 4, !tbaa !9
  br label %152

149:                                              ; preds = %138
  %150 = load ptr, ptr %7, align 8, !tbaa !14
  %151 = load i32, ptr %150, align 4, !tbaa !9
  store i32 %151, ptr %10, align 4, !tbaa !9
  br label %152

152:                                              ; preds = %149, %145
  %153 = load ptr, ptr %7, align 8, !tbaa !14
  %154 = load i32, ptr %153, align 4, !tbaa !9
  %155 = call noundef i32 @_ZN6bParse10ChunkUtils7swapIntEi(i32 noundef %154)
  %156 = load ptr, ptr %7, align 8, !tbaa !14
  store i32 %155, ptr %156, align 4, !tbaa !9
  %157 = load ptr, ptr %7, align 8, !tbaa !14
  %158 = getelementptr inbounds nuw i32, ptr %157, i32 1
  store ptr %158, ptr %7, align 8, !tbaa !14
  %159 = load ptr, ptr %7, align 8, !tbaa !14
  store ptr %159, ptr %8, align 8, !tbaa !80
  store i32 0, ptr %11, align 4, !tbaa !9
  br label %160

160:                                              ; preds = %207, %152
  %161 = load i32, ptr %11, align 4, !tbaa !9
  %162 = load i32, ptr %10, align 4, !tbaa !9
  %163 = icmp slt i32 %161, %162
  br i1 %163, label %164, label %210

164:                                              ; preds = %160
  call void @llvm.lifetime.start.p0(i64 4, ptr %12) #16
  %165 = load ptr, ptr %8, align 8, !tbaa !80
  %166 = getelementptr inbounds i16, ptr %165, i64 1
  %167 = load i16, ptr %166, align 2, !tbaa !82
  %168 = sext i16 %167 to i32
  store i32 %168, ptr %12, align 4, !tbaa !9
  %169 = load ptr, ptr %8, align 8, !tbaa !80
  %170 = getelementptr inbounds i16, ptr %169, i64 0
  %171 = load i16, ptr %170, align 2, !tbaa !82
  %172 = call noundef signext i16 @_ZN6bParse10ChunkUtils9swapShortEs(i16 noundef signext %171)
  %173 = load ptr, ptr %8, align 8, !tbaa !80
  %174 = getelementptr inbounds i16, ptr %173, i64 0
  store i16 %172, ptr %174, align 2, !tbaa !82
  %175 = load ptr, ptr %8, align 8, !tbaa !80
  %176 = getelementptr inbounds i16, ptr %175, i64 1
  %177 = load i16, ptr %176, align 2, !tbaa !82
  %178 = call noundef signext i16 @_ZN6bParse10ChunkUtils9swapShortEs(i16 noundef signext %177)
  %179 = load ptr, ptr %8, align 8, !tbaa !80
  %180 = getelementptr inbounds i16, ptr %179, i64 1
  store i16 %178, ptr %180, align 2, !tbaa !82
  %181 = load ptr, ptr %8, align 8, !tbaa !80
  %182 = getelementptr inbounds i16, ptr %181, i64 2
  store ptr %182, ptr %8, align 8, !tbaa !80
  call void @llvm.lifetime.start.p0(i64 4, ptr %13) #16
  store i32 0, ptr %13, align 4, !tbaa !9
  br label %183

183:                                              ; preds = %201, %164
  %184 = load i32, ptr %13, align 4, !tbaa !9
  %185 = load i32, ptr %12, align 4, !tbaa !9
  %186 = icmp slt i32 %184, %185
  br i1 %186, label %188, label %187

187:                                              ; preds = %183
  call void @llvm.lifetime.end.p0(i64 4, ptr %13) #16
  br label %206

188:                                              ; preds = %183
  %189 = load ptr, ptr %8, align 8, !tbaa !80
  %190 = getelementptr inbounds i16, ptr %189, i64 0
  %191 = load i16, ptr %190, align 2, !tbaa !82
  %192 = call noundef signext i16 @_ZN6bParse10ChunkUtils9swapShortEs(i16 noundef signext %191)
  %193 = load ptr, ptr %8, align 8, !tbaa !80
  %194 = getelementptr inbounds i16, ptr %193, i64 0
  store i16 %192, ptr %194, align 2, !tbaa !82
  %195 = load ptr, ptr %8, align 8, !tbaa !80
  %196 = getelementptr inbounds i16, ptr %195, i64 1
  %197 = load i16, ptr %196, align 2, !tbaa !82
  %198 = call noundef signext i16 @_ZN6bParse10ChunkUtils9swapShortEs(i16 noundef signext %197)
  %199 = load ptr, ptr %8, align 8, !tbaa !80
  %200 = getelementptr inbounds i16, ptr %199, i64 1
  store i16 %198, ptr %200, align 2, !tbaa !82
  br label %201

201:                                              ; preds = %188
  %202 = load i32, ptr %13, align 4, !tbaa !9
  %203 = add nsw i32 %202, 1
  store i32 %203, ptr %13, align 4, !tbaa !9
  %204 = load ptr, ptr %8, align 8, !tbaa !80
  %205 = getelementptr inbounds i16, ptr %204, i64 2
  store ptr %205, ptr %8, align 8, !tbaa !80
  br label %183, !llvm.loop !99

206:                                              ; preds = %187
  call void @llvm.lifetime.end.p0(i64 4, ptr %12) #16
  br label %207

207:                                              ; preds = %206
  %208 = load i32, ptr %11, align 4, !tbaa !9
  %209 = add nsw i32 %208, 1
  store i32 %209, ptr %11, align 4, !tbaa !9
  br label %160, !llvm.loop !100

210:                                              ; preds = %160
  call void @llvm.lifetime.end.p0(i64 4, ptr %11) #16
  call void @llvm.lifetime.end.p0(i64 4, ptr %10) #16
  call void @llvm.lifetime.end.p0(i64 8, ptr %9) #16
  call void @llvm.lifetime.end.p0(i64 8, ptr %8) #16
  call void @llvm.lifetime.end.p0(i64 8, ptr %7) #16
  call void @llvm.lifetime.end.p0(i64 8, ptr %6) #16
  call void @llvm.lifetime.end.p0(i64 1, ptr %5) #16
  ret void
}