; Function Attrs: mustprogress uwtable
define dso_local void @_ZN6bParse5bFile7swapDNAEPc(ptr noundef nonnull readonly align 8 captures(none) dereferenceable(540) %0, ptr noundef %1) local_unnamed_addr #3 align 2 {
  %3 = getelementptr inbounds nuw i8, ptr %0, i64 536
  %4 = load i32, ptr %3, align 8, !tbaa !56
  %5 = and i32 %4, 4
  %.not = icmp eq i32 %5, 0
  %6 = getelementptr inbounds nuw i8, ptr %1, i64 20
  %7 = tail call i32 @strncmp(ptr noundef nonnull dereferenceable(1) %6, ptr noundef nonnull dereferenceable(5) @.str.6, i64 noundef 4) #29
  %8 = icmp eq i32 %7, 0
  %9 = getelementptr inbounds nuw i8, ptr %1, i64 28
  %spec.select = select i1 %8, ptr %9, ptr %6
  %10 = load i32, ptr %spec.select, align 4, !tbaa !76
  br i1 %.not, label %13, label %11

11:                                               ; preds = %2
  %12 = tail call noundef i32 @_ZN6bParse10ChunkUtils7swapIntEi(i32 noundef %10)
  %.pre = load i32, ptr %spec.select, align 4, !tbaa !76
  br label %13

13:                                               ; preds = %2, %11
  %14 = phi i32 [ %.pre, %11 ], [ %10, %2 ]
  %.075 = phi i32 [ %12, %11 ], [ %10, %2 ]
  %15 = tail call noundef i32 @_ZN6bParse10ChunkUtils7swapIntEi(i32 noundef %14)
  store i32 %15, ptr %spec.select, align 4, !tbaa !76
  %16 = getelementptr inbounds nuw i8, ptr %spec.select, i64 4
  %17 = icmp sgt i32 %.075, 0
  br i1 %17, label %.preheader90, label %._crit_edge

.preheader90:                                     ; preds = %13, %21
  %.07492 = phi i32 [ %22, %21 ], [ 0, %13 ]
  %.07891 = phi ptr [ %20, %21 ], [ %16, %13 ]
  br label %18

18:                                               ; preds = %18, %.preheader90
  %.179 = phi ptr [ %20, %18 ], [ %.07891, %.preheader90 ]
  %19 = load i8, ptr %.179, align 1, !tbaa !4
  %.not88 = icmp eq i8 %19, 0
  %20 = getelementptr inbounds nuw i8, ptr %.179, i64 1
  br i1 %.not88, label %21, label %18, !llvm.loop !116

21:                                               ; preds = %18
  %22 = add nuw nsw i32 %.07492, 1
  %exitcond.not = icmp eq i32 %22, %.075
  br i1 %exitcond.not, label %._crit_edge, label %.preheader90, !llvm.loop !117

._crit_edge:                                      ; preds = %21, %13
  %.078.lcssa = phi ptr [ %16, %13 ], [ %20, %21 ]
  %23 = ptrtoint ptr %.078.lcssa to i64
  %24 = add i64 %23, 3
  %25 = and i64 %24, -4
  %26 = inttoptr i64 %25 to ptr
  %27 = getelementptr inbounds nuw i8, ptr %26, i64 4
  %28 = load i32, ptr %27, align 4, !tbaa !76
  br i1 %.not, label %31, label %29

29:                                               ; preds = %._crit_edge
  %30 = tail call noundef i32 @_ZN6bParse10ChunkUtils7swapIntEi(i32 noundef %28)
  %.pre122 = load i32, ptr %27, align 4, !tbaa !76
  br label %31

31:                                               ; preds = %._crit_edge, %29
  %32 = phi i32 [ %.pre122, %29 ], [ %28, %._crit_edge ]
  %.176 = phi i32 [ %30, %29 ], [ %28, %._crit_edge ]
  %33 = tail call noundef i32 @_ZN6bParse10ChunkUtils7swapIntEi(i32 noundef %32)
  store i32 %33, ptr %27, align 4, !tbaa !76
  %34 = icmp sgt i32 %.176, 0
  br i1 %34, label %.preheader.preheader, label %._crit_edge95.thread

.preheader.preheader:                             ; preds = %31
  %35 = getelementptr inbounds nuw i8, ptr %26, i64 8
  br label %.preheader

._crit_edge95.thread:                             ; preds = %31
  %36 = getelementptr inbounds nuw i8, ptr %26, i64 12
  br label %._crit_edge100

.preheader:                                       ; preds = %.preheader.preheader, %40
  %.194 = phi i32 [ %41, %40 ], [ 0, %.preheader.preheader ]
  %.28093 = phi ptr [ %39, %40 ], [ %35, %.preheader.preheader ]
  br label %37

37:                                               ; preds = %37, %.preheader
  %.381 = phi ptr [ %39, %37 ], [ %.28093, %.preheader ]
  %38 = load i8, ptr %.381, align 1, !tbaa !4
  %.not87 = icmp eq i8 %38, 0
  %39 = getelementptr inbounds nuw i8, ptr %.381, i64 1
  br i1 %.not87, label %40, label %37, !llvm.loop !118

40:                                               ; preds = %37
  %41 = add nuw nsw i32 %.194, 1
  %exitcond118.not = icmp eq i32 %41, %.176
  br i1 %exitcond118.not, label %._crit_edge95, label %.preheader, !llvm.loop !119

._crit_edge95:                                    ; preds = %40
  %42 = ptrtoint ptr %39 to i64
  %43 = add i64 %42, 3
  %44 = and i64 %43, -4
  %45 = inttoptr i64 %44 to ptr
  %46 = getelementptr inbounds nuw i8, ptr %45, i64 4
  br label %.lr.ph

.lr.ph:                                           ; preds = %._crit_edge95, %.lr.ph
  %.298 = phi i32 [ %49, %.lr.ph ], [ 0, %._crit_edge95 ]
  %.08297 = phi ptr [ %50, %.lr.ph ], [ %46, %._crit_edge95 ]
  %47 = load i16, ptr %.08297, align 2, !tbaa !81
  %48 = tail call noundef signext i16 @_ZN6bParse10ChunkUtils9swapShortEs(i16 noundef signext %47)
  store i16 %48, ptr %.08297, align 2, !tbaa !81
  %49 = add nuw nsw i32 %.298, 1
  %50 = getelementptr inbounds nuw i8, ptr %.08297, i64 2
  %exitcond119.not = icmp eq i32 %49, %.176
  br i1 %exitcond119.not, label %._crit_edge100, label %.lr.ph, !llvm.loop !120

._crit_edge100:                                   ; preds = %.lr.ph, %._crit_edge95.thread
  %.082.lcssa = phi ptr [ %36, %._crit_edge95.thread ], [ %50, %.lr.ph ]
  %51 = shl i32 %.176, 1
  %52 = and i32 %51, 2
  %spec.select89.idx = zext nneg i32 %52 to i64
  %spec.select89 = getelementptr inbounds nuw i8, ptr %.082.lcssa, i64 %spec.select89.idx
  %53 = getelementptr inbounds nuw i8, ptr %spec.select89, i64 4
  %54 = load i32, ptr %53, align 4, !tbaa !76
  br i1 %.not, label %57, label %55

55:                                               ; preds = %._crit_edge100
  %56 = tail call noundef i32 @_ZN6bParse10ChunkUtils7swapIntEi(i32 noundef %54)
  %.pre123 = load i32, ptr %53, align 4, !tbaa !76
  br label %57

57:                                               ; preds = %._crit_edge100, %55
  %58 = phi i32 [ %.pre123, %55 ], [ %54, %._crit_edge100 ]
  %.277 = phi i32 [ %56, %55 ], [ %54, %._crit_edge100 ]
  %59 = tail call noundef i32 @_ZN6bParse10ChunkUtils7swapIntEi(i32 noundef %58)
  store i32 %59, ptr %53, align 4, !tbaa !76
  %60 = icmp sgt i32 %.277, 0
  br i1 %60, label %.lr.ph113.preheader, label %._crit_edge114

.lr.ph113.preheader:                              ; preds = %57
  %61 = getelementptr inbounds nuw i8, ptr %spec.select89, i64 8
  br label %.lr.ph113

.lr.ph113:                                        ; preds = %.lr.ph113.preheader, %._crit_edge108
  %.3111 = phi i32 [ %70, %._crit_edge108 ], [ 0, %.lr.ph113.preheader ]
  %.284110 = phi ptr [ %.385.lcssa, %._crit_edge108 ], [ %61, %.lr.ph113.preheader ]
  %62 = getelementptr inbounds nuw i8, ptr %.284110, i64 2
  %63 = load i16, ptr %62, align 2, !tbaa !81
  %64 = sext i16 %63 to i32
  %65 = load i16, ptr %.284110, align 2, !tbaa !81
  %66 = tail call noundef signext i16 @_ZN6bParse10ChunkUtils9swapShortEs(i16 noundef signext %65)
  store i16 %66, ptr %.284110, align 2, !tbaa !81
  %67 = load i16, ptr %62, align 2, !tbaa !81
  %68 = tail call noundef signext i16 @_ZN6bParse10ChunkUtils9swapShortEs(i16 noundef signext %67)
  store i16 %68, ptr %62, align 2, !tbaa !81
  %.385102 = getelementptr inbounds nuw i8, ptr %.284110, i64 4
  %69 = icmp sgt i16 %63, 0
  br i1 %69, label %.lr.ph107, label %._crit_edge108

._crit_edge108:                                   ; preds = %.lr.ph107, %.lr.ph113
  %.385.lcssa = phi ptr [ %.385102, %.lr.ph113 ], [ %.385, %.lr.ph107 ]
  %70 = add nuw nsw i32 %.3111, 1
  %exitcond121.not = icmp eq i32 %70, %.277
  br i1 %exitcond121.not, label %._crit_edge114, label %.lr.ph113, !llvm.loop !121

.lr.ph107:                                        ; preds = %.lr.ph113, %.lr.ph107
  %.385105 = phi ptr [ %.385, %.lr.ph107 ], [ %.385102, %.lr.ph113 ]
  %.0104 = phi i32 [ %76, %.lr.ph107 ], [ 0, %.lr.ph113 ]
  %.284.pn103 = phi ptr [ %.385105, %.lr.ph107 ], [ %.284110, %.lr.ph113 ]
  %71 = load i16, ptr %.385105, align 2, !tbaa !81
  %72 = tail call noundef signext i16 @_ZN6bParse10ChunkUtils9swapShortEs(i16 noundef signext %71)
  store i16 %72, ptr %.385105, align 2, !tbaa !81
  %73 = getelementptr inbounds nuw i8, ptr %.284.pn103, i64 6
  %74 = load i16, ptr %73, align 2, !tbaa !81
  %75 = tail call noundef signext i16 @_ZN6bParse10ChunkUtils9swapShortEs(i16 noundef signext %74)
  store i16 %75, ptr %73, align 2, !tbaa !81
  %76 = add nuw nsw i32 %.0104, 1
  %.385 = getelementptr inbounds nuw i8, ptr %.385105, i64 4
  %exitcond120.not = icmp eq i32 %76, %64
  br i1 %exitcond120.not, label %._crit_edge108, label %.lr.ph107, !llvm.loop !122

._crit_edge114:                                   ; preds = %._crit_edge108, %57
  ret void
}